target datalayout = "e-m:e-p270:32:32-p271:32:32-p272:64:64-i64:64-i128:128-f80:128-n8:16:32:64-S128"
target triple = "x86_64-pc-linux-gnu"

%"class.folly::Range" = type { ptr, ptr }
%"class.folly::symbolizer::Path" = type { %"class.folly::Range", %"class.folly::Range", %"class.folly::Range" }

; Function Attrs: inlinehint mustprogress nounwind uwtable
define linkonce_odr void @_ZSt4swapIPKcENSt9enable_ifIXsr6__and_ISt6__not_ISt15__is_tuple_likeIT_EESt21is_move_constructibleIS5_ESt18is_move_assignableIS5_EEE5valueEvE4typeERS5_SE_(ptr noundef nonnull align 8 dereferenceable(8) %0, ptr noundef nonnull align 8 dereferenceable(8) %1) #3 comdat {
  %3 = alloca ptr, align 8
  %4 = alloca ptr, align 8
  %5 = alloca ptr, align 8
  store ptr %0, ptr %3, align 8, !tbaa !23
  store ptr %1, ptr %4, align 8, !tbaa !23
  call void @llvm.lifetime.start.p0(i64 8, ptr %5) #11
  %6 = load ptr, ptr %3, align 8, !tbaa !23
  %7 = load ptr, ptr %6, align 8, !tbaa !13
  store ptr %7, ptr %5, align 8, !tbaa !13
  %8 = load ptr, ptr %4, align 8, !tbaa !23
  %9 = load ptr, ptr %8, align 8, !tbaa !13
  %10 = load ptr, ptr %3, align 8, !tbaa !23
  store ptr %9, ptr %10, align 8, !tbaa !13
  %11 = load ptr, ptr %5, align 8, !tbaa !13
  %12 = load ptr, ptr %4, align 8, !tbaa !23
  store ptr %11, ptr %12, align 8, !tbaa !13
  call void @llvm.lifetime.end.p0(i64 8, ptr %5) #11
  ret void
}

; Function Attrs: mustprogress nounwind uwtable
define linkonce_odr void @_ZN5folly5RangeIPKcE4swapERS3_(ptr noundef nonnull align 8 dereferenceable(16) %0, ptr noundef nonnull align 8 dereferenceable(16) %1) #2 comdat align 2 {
  %3 = alloca ptr, align 8
  %4 = alloca ptr, align 8
  store ptr %0, ptr %3, align 8, !tbaa !16
  store ptr %1, ptr %4, align 8, !tbaa !16
  %5 = load ptr, ptr %3, align 8
  %6 = getelementptr inbounds nuw %"class.folly::Range", ptr %5, i32 0, i32 0
  %7 = load ptr, ptr %4, align 8, !tbaa !16
  %8 = getelementptr inbounds nuw %"class.folly::Range", ptr %7, i32 0, i32 0
  call void @_ZSt4swapIPKcENSt9enable_ifIXsr6__and_ISt6__not_ISt15__is_tuple_likeIT_EESt21is_move_constructibleIS5_ESt18is_move_assignableIS5_EEE5valueEvE4typeERS5_SE_(ptr noundef nonnull align 8 dereferenceable(8) %6, ptr noundef nonnull align 8 dereferenceable(8) %8) #11
  %9 = getelementptr inbounds nuw %"class.folly::Range", ptr %5, i32 0, i32 1
  %10 = load ptr, ptr %4, align 8, !tbaa !16
  %11 = getelementptr inbounds nuw %"class.folly::Range", ptr %10, i32 0, i32 1
  call void @_ZSt4swapIPKcENSt9enable_ifIXsr6__and_ISt6__not_ISt15__is_tuple_likeIT_EESt21is_move_constructibleIS5_ESt18is_move_assignableIS5_EEE5valueEvE4typeERS5_SE_(ptr noundef nonnull align 8 dereferenceable(8) %9, ptr noundef nonnull align 8 dereferenceable(8) %11) #11
  ret void
}

; Function Attrs: mustprogress uwtable
define linkonce_odr void @_ZN5folly4swapIPKcEEvRNS_5RangeIT_EES6_(ptr noundef nonnull align 8 dereferenceable(16) %0, ptr noundef nonnull align 8 dereferenceable(16) %1) #0 comdat {
  %3 = alloca ptr, align 8
  %4 = alloca ptr, align 8
  store ptr %0, ptr %3, align 8, !tbaa !16
  store ptr %1, ptr %4, align 8, !tbaa !16
  %5 = load ptr, ptr %3, align 8, !tbaa !16
  %6 = load ptr, ptr %4, align 8, !tbaa !16
  call void @_ZN5folly5RangeIPKcE4swapERS3_(ptr noundef nonnull align 8 dereferenceable(16) %5, ptr noundef nonnull align 8 dereferenceable(16) %6)
  ret void
}

; Function Attrs: mustprogress nounwind uwtable
define linkonce_odr noundef nonnull align 1 dereferenceable(1) ptr @_ZN5folly5RangeIPKcEixEm(ptr noundef nonnull align 8 dereferenceable(16) %0, i64 noundef %1) #2 comdat align 2 {
  %3 = alloca ptr, align 8
  %4 = alloca i64, align 8
  store ptr %0, ptr %3, align 8, !tbaa !16
  store i64 %1, ptr %4, align 8, !tbaa !21
  %5 = load ptr, ptr %3, align 8
  %6 = getelementptr inbounds nuw %"class.folly::Range", ptr %5, i32 0, i32 0
  %7 = load ptr, ptr %6, align 8, !tbaa !18
  %8 = load i64, ptr %4, align 8, !tbaa !21
  %9 = getelementptr inbounds nuw i8, ptr %7, i64 %8
  ret ptr %9
}

; Function Attrs: mustprogress nounwind uwtable
define linkonce_odr void @_ZN5folly5RangeIPKcE5clearEv(ptr noundef nonnull align 8 dereferenceable(16) %0) #2 comdat align 2 {
  %2 = alloca ptr, align 8
  store ptr %0, ptr %2, align 8, !tbaa !16
  %3 = load ptr, ptr %2, align 8
  %4 = getelementptr inbounds nuw %"class.folly::Range", ptr %3, i32 0, i32 0
  store ptr null, ptr %4, align 8, !tbaa !18
  %5 = getelementptr inbounds nuw %"class.folly::Range", ptr %3, i32 0, i32 1
  store ptr null, ptr %5, align 8, !tbaa !20
  ret void
}

; Function Attrs: mustprogress nounwind uwtable
define linkonce_odr noundef zeroext i1 @_ZNK5folly5RangeIPKcE5emptyEv(ptr noundef nonnull align 8 dereferenceable(16) %0) #2 comdat align 2 {
  %2 = alloca ptr, align 8
  store ptr %0, ptr %2, align 8, !tbaa !16
  %3 = load ptr, ptr %2, align 8
  %4 = getelementptr inbounds nuw %"class.folly::Range", ptr %3, i32 0, i32 0
  %5 = load ptr, ptr %4, align 8, !tbaa !18
  %6 = getelementptr inbounds nuw %"class.folly::Range", ptr %3, i32 0, i32 1
  %7 = load ptr, ptr %6, align 8, !tbaa !20
  %8 = icmp eq ptr %5, %7
  ret i1 %8
}

; Function Attrs: mustprogress uwtable
define void @_ZN5folly10symbolizer4PathC2ENS_5RangeIPKcEES5_S5_(ptr noundef nonnull align 8 dereferenceable(48) %0, ptr %1, ptr %2, ptr %3, ptr %4, ptr noundef byval(%"class.folly::Range") align 8 %5) unnamed_addr #0 align 2 {
  %7 = alloca %"class.folly::Range", align 8
  %8 = alloca %"class.folly::Range", align 8
  %9 = alloca ptr, align 8
  %10 = getelementptr inbounds nuw { ptr, ptr }, ptr %7, i32 0, i32 0
  store ptr %1, ptr %10, align 8
  %11 = getelementptr inbounds nuw { ptr, ptr }, ptr %7, i32 0, i32 1
  store ptr %2, ptr %11, align 8
  %12 = getelementptr inbounds nuw { ptr, ptr }, ptr %8, i32 0, i32 0
  store ptr %3, ptr %12, align 8
  %13 = getelementptr inbounds nuw { ptr, ptr }, ptr %8, i32 0, i32 1
  store ptr %4, ptr %13, align 8
  store ptr %0, ptr %9, align 8, !tbaa !7
  %14 = load ptr, ptr %9, align 8
  %15 = getelementptr inbounds nuw %"class.folly::symbolizer::Path", ptr %14, i32 0, i32 0
  call void @llvm.memcpy.p0.p0.i64(ptr align 8 %15, ptr align 8 %7, i64 16, i1 false), !tbaa.struct !12
  %16 = getelementptr inbounds nuw %"class.folly::symbolizer::Path", ptr %14, i32 0, i32 1
  call void @llvm.memcpy.p0.p0.i64(ptr align 8 %16, ptr align 8 %8, i64 16, i1 false), !tbaa.struct !12
  %17 = getelementptr inbounds nuw %"class.folly::symbolizer::Path", ptr %14, i32 0, i32 2
  call void @llvm.memcpy.p0.p0.i64(ptr align 8 %17, ptr align 8 %5, i64 16, i1 false), !tbaa.struct !12
  %18 = getelementptr inbounds nuw %"class.folly::symbolizer::Path", ptr %14, i32 0, i32 2
  %19 = call noundef zeroext i1 @_ZNK5folly5RangeIPKcE5emptyEv(ptr noundef nonnull align 8 dereferenceable(16) %18)
  br i1 %19, label %20, label %23

20:                                               ; preds = %6
  %21 = getelementptr inbounds nuw %"class.folly::symbolizer::Path", ptr %14, i32 0, i32 0
  call void @_ZN5folly5RangeIPKcE5clearEv(ptr noundef nonnull align 8 dereferenceable(16) %21)
  %22 = getelementptr inbounds nuw %"class.folly::symbolizer::Path", ptr %14, i32 0, i32 1
  call void @_ZN5folly5RangeIPKcE5clearEv(ptr noundef nonnull align 8 dereferenceable(16) %22)
  br label %49

23:                                               ; preds = %6
  %24 = getelementptr inbounds nuw %"class.folly::symbolizer::Path", ptr %14, i32 0, i32 2
  %25 = call noundef nonnull align 1 dereferenceable(1) ptr @_ZN5folly5RangeIPKcEixEm(ptr noundef nonnull align 8 dereferenceable(16) %24, i64 noundef 0)
  %26 = load i8, ptr %25, align 1, !tbaa !15
  %27 = sext i8 %26 to i32
  %28 = icmp eq i32 %27, 47
  br i1 %28, label %29, label %32

29:                                               ; preds = %23
  %30 = getelementptr inbounds nuw %"class.folly::symbolizer::Path", ptr %14, i32 0, i32 0
  call void @_ZN5folly5RangeIPKcE5clearEv(ptr noundef nonnull align 8 dereferenceable(16) %30)
  %31 = getelementptr inbounds nuw %"class.folly::symbolizer::Path", ptr %14, i32 0, i32 1
  call void @_ZN5folly5RangeIPKcE5clearEv(ptr noundef nonnull align 8 dereferenceable(16) %31)
  br label %32

32:                                               ; preds = %29, %23
  %33 = getelementptr inbounds nuw %"class.folly::symbolizer::Path", ptr %14, i32 0, i32 1
  %34 = call noundef zeroext i1 @_ZNK5folly5RangeIPKcE5emptyEv(ptr noundef nonnull align 8 dereferenceable(16) %33)
  br i1 %34, label %43, label %35

35:                                               ; preds = %32
  %36 = getelementptr inbounds nuw %"class.folly::symbolizer::Path", ptr %14, i32 0, i32 1
  %37 = call noundef nonnull align 1 dereferenceable(1) ptr @_ZN5folly5RangeIPKcEixEm(ptr noundef nonnull align 8 dereferenceable(16) %36, i64 noundef 0)
  %38 = load i8, ptr %37, align 1, !tbaa !15
  %39 = sext i8 %38 to i32
  %40 = icmp eq i32 %39, 47
  br i1 %40, label %41, label %43

41:                                               ; preds = %35
  %42 = getelementptr inbounds nuw %"class.folly::symbolizer::Path", ptr %14, i32 0, i32 0
  call void @_ZN5folly5RangeIPKcE5clearEv(ptr noundef nonnull align 8 dereferenceable(16) %42)
  br label %43

43:                                               ; preds = %41, %35, %32
  %44 = getelementptr inbounds nuw %"class.folly::symbolizer::Path", ptr %14, i32 0, i32 0
  %45 = call noundef zeroext i1 @_ZNK5folly5RangeIPKcE5emptyEv(ptr noundef nonnull align 8 dereferenceable(16) %44)
  br i1 %45, label %46, label %49

46:                                               ; preds = %43
  %47 = getelementptr inbounds nuw %"class.folly::symbolizer::Path", ptr %14, i32 0, i32 0
  %48 = getelementptr inbounds nuw %"class.folly::symbolizer::Path", ptr %14, i32 0, i32 1
  call void @_ZN5folly4swapIPKcEEvRNS_5RangeIT_EES6_(ptr noundef nonnull align 8 dereferenceable(16) %47, ptr noundef nonnull align 8 dereferenceable(16) %48)
  br label %49

49:                                               ; preds = %20, %46, %43
  ret void
}