; Function Attrs: mustprogress nofree norecurse nosync nounwind willreturn memory(read, argmem: readwrite, inaccessiblemem: none) uwtable
define void @_ZN5folly10symbolizer4PathC2ENS_5RangeIPKcEES5_S5_(ptr noundef nonnull align 8 captures(none) dereferenceable(48) initializes((0, 48)) %0, ptr %1, ptr %2, ptr %3, ptr %4, ptr noundef readonly byval(%"class.folly::Range") align 8 captures(none) %5) unnamed_addr #0 align 2 {
  store ptr %1, ptr %0, align 8, !tbaa !7
  %.sroa.22.0..sroa_idx = getelementptr inbounds nuw i8, ptr %0, i64 8
  store ptr %2, ptr %.sroa.22.0..sroa_idx, align 8, !tbaa !7
  %7 = getelementptr inbounds nuw i8, ptr %0, i64 16
  store ptr %3, ptr %7, align 8, !tbaa !7
  %.sroa.2.0..sroa_idx = getelementptr inbounds nuw i8, ptr %0, i64 24
  store ptr %4, ptr %.sroa.2.0..sroa_idx, align 8, !tbaa !7
  %8 = getelementptr inbounds nuw i8, ptr %0, i64 32
  call void @llvm.memcpy.p0.p0.i64(ptr noundef nonnull align 8 dereferenceable(16) %8, ptr noundef nonnull align 8 dereferenceable(16) %5, i64 16, i1 false), !tbaa.struct !12
  %9 = load ptr, ptr %8, align 8, !tbaa !13
  %10 = getelementptr inbounds nuw i8, ptr %0, i64 40
  %11 = load ptr, ptr %10, align 8, !tbaa !15
  %12 = icmp eq ptr %9, %11
  br i1 %12, label %13, label %14

13:                                               ; preds = %6
  tail call void @llvm.memset.p0.i64(ptr noundef nonnull align 8 dereferenceable(32) %0, i8 0, i64 32, i1 false)
  br label %28

14:                                               ; preds = %6
  %15 = load i8, ptr %9, align 1, !tbaa !16
  %16 = icmp eq i8 %15, 47
  br i1 %16, label %.thread4, label %17

17:                                               ; preds = %14
  %18 = icmp eq ptr %3, %4
  br i1 %18, label %22, label %19

19:                                               ; preds = %17
  %20 = load i8, ptr %3, align 1, !tbaa !16
  %21 = icmp eq i8 %20, 47
  br i1 %21, label %.thread4, label %22

22:                                               ; preds = %19, %17
  %23 = icmp eq ptr %1, %2
  br i1 %23, label %.thread4, label %28

.thread4:                                         ; preds = %19, %14, %22
  %24 = phi ptr [ %1, %22 ], [ null, %14 ], [ null, %19 ]
  %25 = phi ptr [ %2, %22 ], [ null, %14 ], [ null, %19 ]
  %26 = phi ptr [ %4, %22 ], [ null, %14 ], [ %4, %19 ]
  %27 = phi ptr [ %3, %22 ], [ null, %14 ], [ %3, %19 ]
  store ptr %27, ptr %0, align 8, !tbaa !7
  store ptr %24, ptr %7, align 8, !tbaa !7
  store ptr %26, ptr %.sroa.22.0..sroa_idx, align 8, !tbaa !7
  store ptr %25, ptr %.sroa.2.0..sroa_idx, align 8, !tbaa !7
  br label %28

28:                                               ; preds = %.thread4, %22, %13
  ret void
}